target datalayout = "e-m:e-p270:32:32-p271:32:32-p272:64:64-i64:64-i128:128-f80:128-n8:16:32:64-S128"
target triple = "x86_64-pc-linux-gnu"

@.str.1 = private unnamed_addr constant [31 x i8] c"../openssl/crypto/ts/ts_conf.c\00", align 1
@.str.20 = private unnamed_addr constant [23 x i8] c"clock_precision_digits\00", align 1
@.str.26 = private unnamed_addr constant [7 x i8] c"%s::%s\00", align 1
@__func__.ts_CONF_invalid = private unnamed_addr constant [16 x i8] c"ts_CONF_invalid\00", align 1

; Function Attrs: nounwind uwtable
define internal void @ts_CONF_invalid(ptr noundef %0, ptr noundef %1) #0 {
  %3 = alloca ptr, align 8
  %4 = alloca ptr, align 8
  store ptr %0, ptr %3, align 8, !tbaa !3
  store ptr %1, ptr %4, align 8, !tbaa !3
  call void @ERR_new()
  call void @ERR_set_debug(ptr noundef @.str.1, i32 noundef 132, ptr noundef @__func__.ts_CONF_invalid)
  %5 = load ptr, ptr %3, align 8, !tbaa !3
  %6 = load ptr, ptr %4, align 8, !tbaa !3
  call void (i32, i32, ptr, ...) @ERR_set_error(i32 noundef 47, i32 noundef 135, ptr noundef @.str.26, ptr noundef %5, ptr noundef %6)
  ret void
}

; Function Attrs: nounwind uwtable
define i32 @TS_CONF_set_clock_precision_digits(ptr noundef %0, ptr noundef %1, ptr noundef %2) #0 {
  %4 = alloca i32, align 4
  %5 = alloca ptr, align 8
  %6 = alloca ptr, align 8
  %7 = alloca ptr, align 8
  %8 = alloca i32, align 4
  %9 = alloca i64, align 8
  %10 = alloca i32, align 4
  store ptr %0, ptr %5, align 8, !tbaa !31
  store ptr %1, ptr %6, align 8, !tbaa !3
  store ptr %2, ptr %7, align 8, !tbaa !33
  call void @llvm.lifetime.start.p0(i64 4, ptr %8) #7
  store i32 0, ptr %8, align 4, !tbaa !16
  call void @llvm.lifetime.start.p0(i64 8, ptr %9) #7
  store i64 0, ptr %9, align 8, !tbaa !49
  %11 = load ptr, ptr %5, align 8, !tbaa !31
  %12 = load ptr, ptr %6, align 8, !tbaa !3
  %13 = call i64 @_CONF_get_number(ptr noundef %11, ptr noundef %12, ptr noundef @.str.20)
  store i64 %13, ptr %9, align 8, !tbaa !49
  %14 = load i64, ptr %9, align 8, !tbaa !49
  %15 = icmp slt i64 %14, 0
  br i1 %15, label %19, label %16

16:                                               ; preds = %3
  %17 = load i64, ptr %9, align 8, !tbaa !49
  %18 = icmp sgt i64 %17, 6
  br i1 %18, label %19, label %21

19:                                               ; preds = %16, %3
  %20 = load ptr, ptr %6, align 8, !tbaa !3
  call void @ts_CONF_invalid(ptr noundef %20, ptr noundef @.str.20)
  br label %29

21:                                               ; preds = %16
  %22 = load ptr, ptr %7, align 8, !tbaa !33
  %23 = load i64, ptr %9, align 8, !tbaa !49
  %24 = trunc i64 %23 to i32
  %25 = call i32 @TS_RESP_CTX_set_clock_precision_digits(ptr noundef %22, i32 noundef %24)
  %26 = icmp ne i32 %25, 0
  br i1 %26, label %28, label %27

27:                                               ; preds = %21
  br label %29

28:                                               ; preds = %21
  store i32 1, ptr %4, align 4
  store i32 1, ptr %10, align 4
  br label %31

29:                                               ; preds = %27, %19
  %30 = load i32, ptr %8, align 4, !tbaa !16
  store i32 %30, ptr %4, align 4
  store i32 1, ptr %10, align 4
  br label %31

31:                                               ; preds = %29, %28
  call void @llvm.lifetime.end.p0(i64 8, ptr %9) #7
  call void @llvm.lifetime.end.p0(i64 4, ptr %8) #7
  %32 = load i32, ptr %4, align 4
  ret i32 %32
}