; Function Attrs: nounwind uwtable
define range(i32 0, 2) i32 @TS_CONF_set_clock_precision_digits(ptr noundef %0, ptr noundef %1, ptr noundef %2) local_unnamed_addr #0 {
  %4 = tail call i64 @_CONF_get_number(ptr noundef %0, ptr noundef %1, ptr noundef nonnull @.str.20) #4
  %or.cond = icmp ugt i64 %4, 6
  br i1 %or.cond, label %5, label %6

5:                                                ; preds = %3
  tail call void @ERR_new() #4
  tail call void @ERR_set_debug(ptr noundef nonnull @.str.1, i32 noundef 132, ptr noundef nonnull @__func__.ts_CONF_invalid) #4
  tail call void (i32, i32, ptr, ...) @ERR_set_error(i32 noundef 47, i32 noundef 135, ptr noundef nonnull @.str.26, ptr noundef %1, ptr noundef nonnull @.str.20) #4
  br label %9

6:                                                ; preds = %3
  %7 = trunc nuw nsw i64 %4 to i32
  %8 = tail call i32 @TS_RESP_CTX_set_clock_precision_digits(ptr noundef %2, i32 noundef %7) #4
  %.not = icmp eq i32 %8, 0
  br i1 %.not, label %9, label %10

9:                                                ; preds = %6, %5
  br label %10

10:                                               ; preds = %6, %9
  %.0 = phi i32 [ 0, %9 ], [ 1, %6 ]
  ret i32 %.0
}